target datalayout = "e-m:e-p270:32:32-p271:32:32-p272:64:64-i64:64-i128:128-f80:128-n8:16:32:64-S128"
target triple = "x86_64-pc-linux-gnu"

%struct.spawn_req = type { i32, ptr, i32, i32, ptr, ptr, ptr }

; Function Attrs: nounwind uwtable
define dso_local void @spawn_req_free(ptr noundef %0) #0 {
  %2 = alloca ptr, align 8
  %3 = alloca i32, align 4
  store ptr %0, ptr %2, align 8
  call void @llvm.lifetime.start.p0(i64 4, ptr %3) #7
  %4 = load ptr, ptr %2, align 8
  %5 = icmp ne ptr %4, null
  br i1 %5, label %6, label %85

6:                                                ; preds = %1
  %7 = load ptr, ptr %2, align 8
  %8 = getelementptr inbounds nuw %struct.spawn_req, ptr %7, i32 0, i32 1
  call void @slurm_xfree(ptr noundef %8)
  %9 = load ptr, ptr %2, align 8
  %10 = getelementptr inbounds nuw %struct.spawn_req, ptr %9, i32 0, i32 4
  %11 = load ptr, ptr %10, align 8
  %12 = icmp ne ptr %11, null
  br i1 %12, label %13, label %33

13:                                               ; preds = %6
  store i32 0, ptr %3, align 4
  br label %14

14:                                               ; preds = %27, %13
  %15 = load i32, ptr %3, align 4
  %16 = load ptr, ptr %2, align 8
  %17 = getelementptr inbounds nuw %struct.spawn_req, ptr %16, i32 0, i32 3
  %18 = load i32, ptr %17, align 4
  %19 = icmp ult i32 %15, %18
  br i1 %19, label %20, label %30

20:                                               ; preds = %14
  %21 = load ptr, ptr %2, align 8
  %22 = getelementptr inbounds nuw %struct.spawn_req, ptr %21, i32 0, i32 4
  %23 = load ptr, ptr %22, align 8
  %24 = load i32, ptr %3, align 4
  %25 = sext i32 %24 to i64
  %26 = getelementptr inbounds ptr, ptr %23, i64 %25
  call void @slurm_xfree(ptr noundef %26)
  br label %27

27:                                               ; preds = %20
  %28 = load i32, ptr %3, align 4
  %29 = add nsw i32 %28, 1
  store i32 %29, ptr %3, align 4
  br label %14, !llvm.loop !13

30:                                               ; preds = %14
  %31 = load ptr, ptr %2, align 8
  %32 = getelementptr inbounds nuw %struct.spawn_req, ptr %31, i32 0, i32 4
  call void @slurm_xfree(ptr noundef %32)
  br label %33

33:                                               ; preds = %30, %6
  %34 = load ptr, ptr %2, align 8
  %35 = getelementptr inbounds nuw %struct.spawn_req, ptr %34, i32 0, i32 5
  %36 = load ptr, ptr %35, align 8
  %37 = icmp ne ptr %36, null
  br i1 %37, label %38, label %58

38:                                               ; preds = %33
  store i32 0, ptr %3, align 4
  br label %39

39:                                               ; preds = %52, %38
  %40 = load i32, ptr %3, align 4
  %41 = load ptr, ptr %2, align 8
  %42 = getelementptr inbounds nuw %struct.spawn_req, ptr %41, i32 0, i32 3
  %43 = load i32, ptr %42, align 4
  %44 = icmp ult i32 %40, %43
  br i1 %44, label %45, label %55

45:                                               ; preds = %39
  %46 = load ptr, ptr %2, align 8
  %47 = getelementptr inbounds nuw %struct.spawn_req, ptr %46, i32 0, i32 5
  %48 = load ptr, ptr %47, align 8
  %49 = load i32, ptr %3, align 4
  %50 = sext i32 %49 to i64
  %51 = getelementptr inbounds ptr, ptr %48, i64 %50
  call void @slurm_xfree(ptr noundef %51)
  br label %52

52:                                               ; preds = %45
  %53 = load i32, ptr %3, align 4
  %54 = add nsw i32 %53, 1
  store i32 %54, ptr %3, align 4
  br label %39, !llvm.loop !14

55:                                               ; preds = %39
  %56 = load ptr, ptr %2, align 8
  %57 = getelementptr inbounds nuw %struct.spawn_req, ptr %56, i32 0, i32 5
  call void @slurm_xfree(ptr noundef %57)
  br label %58

58:                                               ; preds = %55, %33
  %59 = load ptr, ptr %2, align 8
  %60 = getelementptr inbounds nuw %struct.spawn_req, ptr %59, i32 0, i32 6
  %61 = load ptr, ptr %60, align 8
  %62 = icmp ne ptr %61, null
  br i1 %62, label %63, label %84

63:                                               ; preds = %58
  store i32 0, ptr %3, align 4
  br label %64

64:                                               ; preds = %78, %63
  %65 = load i32, ptr %3, align 4
  %66 = load ptr, ptr %2, align 8
  %67 = getelementptr inbounds nuw %struct.spawn_req, ptr %66, i32 0, i32 2
  %68 = load i32, ptr %67, align 8
  %69 = icmp ult i32 %65, %68
  br i1 %69, label %70, label %81

70:                                               ; preds = %64
  %71 = load ptr, ptr %2, align 8
  %72 = getelementptr inbounds nuw %struct.spawn_req, ptr %71, i32 0, i32 6
  %73 = load ptr, ptr %72, align 8
  %74 = load i32, ptr %3, align 4
  %75 = sext i32 %74 to i64
  %76 = getelementptr inbounds ptr, ptr %73, i64 %75
  %77 = load ptr, ptr %76, align 8
  call void @spawn_subcmd_free(ptr noundef %77)
  br label %78

78:                                               ; preds = %70
  %79 = load i32, ptr %3, align 4
  %80 = add nsw i32 %79, 1
  store i32 %80, ptr %3, align 4
  br label %64, !llvm.loop !15

81:                                               ; preds = %64
  %82 = load ptr, ptr %2, align 8
  %83 = getelementptr inbounds nuw %struct.spawn_req, ptr %82, i32 0, i32 6
  call void @slurm_xfree(ptr noundef %83)
  br label %84

84:                                               ; preds = %81, %58
  call void @slurm_xfree(ptr noundef %2)
  br label %85

85:                                               ; preds = %84, %1
  call void @llvm.lifetime.end.p0(i64 4, ptr %3) #7
  ret void
}