; Function Attrs: nounwind uwtable
define dso_local void @spawn_req_free(ptr noundef %0) local_unnamed_addr #0 {
  %2 = alloca ptr, align 8
  store ptr %0, ptr %2, align 8
  %.not = icmp eq ptr %0, null
  br i1 %.not, label %36, label %3

3:                                                ; preds = %1
  %4 = getelementptr inbounds nuw i8, ptr %0, i64 8
  tail call void @slurm_xfree(ptr noundef nonnull %4) #10
  %5 = getelementptr inbounds nuw i8, ptr %0, i64 24
  %6 = load ptr, ptr %5, align 8
  %.not10 = icmp eq ptr %6, null
  br i1 %.not10, label %14, label %.preheader14

.preheader14:                                     ; preds = %3
  %7 = getelementptr inbounds nuw i8, ptr %0, i64 20
  %8 = load i32, ptr %7, align 4
  %.not26 = icmp eq i32 %8, 0
  br i1 %.not26, label %._crit_edge, label %.lr.ph

.lr.ph:                                           ; preds = %.preheader14, %.lr.ph
  %indvars.iv = phi i64 [ %indvars.iv.next, %.lr.ph ], [ 0, %.preheader14 ]
  %9 = load ptr, ptr %5, align 8
  %10 = getelementptr inbounds nuw ptr, ptr %9, i64 %indvars.iv
  tail call void @slurm_xfree(ptr noundef %10) #10
  %indvars.iv.next = add nuw nsw i64 %indvars.iv, 1
  %11 = load i32, ptr %7, align 4
  %12 = zext i32 %11 to i64
  %13 = icmp samesign ult i64 %indvars.iv.next, %12
  br i1 %13, label %.lr.ph, label %._crit_edge, !llvm.loop !13

._crit_edge:                                      ; preds = %.lr.ph, %.preheader14
  tail call void @slurm_xfree(ptr noundef nonnull %5) #10
  br label %14

14:                                               ; preds = %._crit_edge, %3
  %15 = getelementptr inbounds nuw i8, ptr %0, i64 32
  %16 = load ptr, ptr %15, align 8
  %.not11 = icmp eq ptr %16, null
  br i1 %.not11, label %24, label %.preheader13

.preheader13:                                     ; preds = %14
  %17 = getelementptr inbounds nuw i8, ptr %0, i64 20
  %18 = load i32, ptr %17, align 4
  %.not27 = icmp eq i32 %18, 0
  br i1 %.not27, label %._crit_edge20, label %.lr.ph19

.lr.ph19:                                         ; preds = %.preheader13, %.lr.ph19
  %indvars.iv30 = phi i64 [ %indvars.iv.next31, %.lr.ph19 ], [ 0, %.preheader13 ]
  %19 = load ptr, ptr %15, align 8
  %20 = getelementptr inbounds nuw ptr, ptr %19, i64 %indvars.iv30
  tail call void @slurm_xfree(ptr noundef %20) #10
  %indvars.iv.next31 = add nuw nsw i64 %indvars.iv30, 1
  %21 = load i32, ptr %17, align 4
  %22 = zext i32 %21 to i64
  %23 = icmp samesign ult i64 %indvars.iv.next31, %22
  br i1 %23, label %.lr.ph19, label %._crit_edge20, !llvm.loop !14

._crit_edge20:                                    ; preds = %.lr.ph19, %.preheader13
  tail call void @slurm_xfree(ptr noundef nonnull %15) #10
  br label %24

24:                                               ; preds = %._crit_edge20, %14
  %25 = getelementptr inbounds nuw i8, ptr %0, i64 40
  %26 = load ptr, ptr %25, align 8
  %.not12 = icmp eq ptr %26, null
  br i1 %.not12, label %35, label %.preheader

.preheader:                                       ; preds = %24
  %27 = getelementptr inbounds nuw i8, ptr %0, i64 16
  %28 = load i32, ptr %27, align 8
  %.not28 = icmp eq i32 %28, 0
  br i1 %.not28, label %._crit_edge24, label %.lr.ph23

.lr.ph23:                                         ; preds = %.preheader, %.lr.ph23
  %indvars.iv33 = phi i64 [ %indvars.iv.next34, %.lr.ph23 ], [ 0, %.preheader ]
  %29 = load ptr, ptr %25, align 8
  %30 = getelementptr inbounds nuw ptr, ptr %29, i64 %indvars.iv33
  %31 = load ptr, ptr %30, align 8
  tail call void @spawn_subcmd_free(ptr noundef %31)
  %indvars.iv.next34 = add nuw nsw i64 %indvars.iv33, 1
  %32 = load i32, ptr %27, align 8
  %33 = zext i32 %32 to i64
  %34 = icmp samesign ult i64 %indvars.iv.next34, %33
  br i1 %34, label %.lr.ph23, label %._crit_edge24, !llvm.loop !15

._crit_edge24:                                    ; preds = %.lr.ph23, %.preheader
  tail call void @slurm_xfree(ptr noundef nonnull %25) #10
  br label %35

35:                                               ; preds = %._crit_edge24, %24
  call void @slurm_xfree(ptr noundef nonnull %2) #10
  br label %36

36:                                               ; preds = %35, %1
  ret void
}